ccopy_reg
_reconstructor
p0
(csklearn.pipeline
Pipeline
p1
c__builtin__
object
p2
Ntp3
Rp4
(dp5
S'_sklearn_version'
p6
S'0.18.1'
p7
sS'steps'
p8
(lp9
(S'scale'
p10
g0
(csklearn.preprocessing.data
StandardScaler
p11
g2
Ntp12
Rp13
(dp14
S'copy'
p15
I01
sg6
g7
sS'with_mean'
p16
I01
sS'with_std'
p17
I01
sbtp18
a(S'select'
p19
g0
(csklearn.feature_selection.univariate_selection
SelectKBest
p20
g2
Ntp21
Rp22
(dp23
S'k'
p24
I20
sg6
g7
sS'score_func'
p25
csklearn.feature_selection.univariate_selection
f_classif
p26
sbtp27
a(S'clf'
p28
g0
(csklearn.neighbors.classification
KNeighborsClassifier
p29
g2
Ntp30
Rp31
(dp32
S'n_neighbors'
p33
I1
sS'n_jobs'
p34
I1
sS'algorithm'
p35
S'ball_tree'
p36
sg6
g7
sS'metric'
p37
S'minkowski'
p38
sS'metric_params'
p39
NsS'p'
p40
I1
sS'radius'
p41
NsS'leaf_size'
p42
I10
sS'_fit_method'
p43
NsS'weights'
p44
S'uniform'
p45
sS'_tree'
p46
NsS'_fit_X'
p47
Nsbtp48
asb.