(dp0
S'METTS MARK'
p1
(dp2
S'to_messages'
p3
I807
sS'perc_bonus'
p4
F56.50638004119315
sS'deferral_payments'
p5
S'NaN'
p6
sS'expenses'
p7
I94299
sS'poi'
p8
I00
sS'perc_exercised_stock'
p9
I0
sS'deferred_income'
p10
g6
sS'long_term_incentive'
p11
g6
sS'shared_receipt_with_poi'
p12
I702
sS'from_messages'
p13
I29
sS'other'
p14
I1740
sS'perc_message_from_poi'
p15
F56.71641791044776
sS'bonus'
p16
I600000
sS'total_stock_value'
p17
I585062
sS'from_poi_to_this_person'
p18
I38
sS'from_this_person_to_poi'
p19
I1
sS'restricted_stock'
p20
I585062
sS'salary'
p21
I365788
sS'total_payments'
p22
I1061827
sS'exercised_stock_options'
p23
g6
sS'perc_message_to_poi'
p24
F0.12376237623762376
ssS'BAXTER JOHN C'
p25
(dp26
g3
g6
sg4
F21.297957898551793
sg5
I1295738
sg7
I11200
sg8
I00
sg9
F62.88601858299968
sg10
I-1386055
sg11
I1586055
sg12
g6
sg13
g6
sg14
I2660303
sg15
I0
sg16
I1200000
sg17
I10623258
sg18
g6
sg19
g6
sg20
I3942714
sg21
I267102
sg22
I5634343
sg23
I6680544
sg24
I0
ssS'ELLIOTT STEVEN'
p27
(dp28
g3
g6
sg4
F165.30877317274766
sg5
g6
sg7
I78552
sg8
I00
sg9
F73.22260877246963
sg10
I-400729
sg11
g6
sg12
g6
sg13
g6
sg14
I12961
sg15
I0
sg16
I350000
sg17
I6678735
sg18
g6
sg19
g6
sg20
I1788391
sg21
I170941
sg22
I211725
sg23
I4890344
sg24
I0
ssS'CORDES WILLIAM R'
p29
(dp30
g3
I764
sg4
I0
sg5
g6
sg7
g6
sg8
I00
sg9
F62.78746080900803
sg10
g6
sg11
g6
sg12
I58
sg13
I12
sg14
g6
sg15
F45.45454545454545
sg16
g6
sg17
I1038185
sg18
I10
sg19
I0
sg20
I386335
sg21
g6
sg22
g6
sg23
I651850
sg24
F0.0
ssS'HANNON KEVIN P'
p31
(dp32
g3
I1045
sg4
F519.6028848352166
sg5
g6
sg7
I34039
sg8
I01
sg9
F86.65224027607292
sg10
I-3117011
sg11
I1617011
sg12
I1035
sg13
I32
sg14
I11350
sg15
F50.0
sg16
I1500000
sg17
I6391065
sg18
I32
sg19
I21
sg20
I853064
sg21
I243293
sg22
I288682
sg23
I5538001
sg24
F1.9699812382739212
ssS'MORDAUNT KRISTINA M'
p33
(dp34
g3
g6
sg4
F51.70861163173286
sg5
g6
sg7
I35018
sg8
I00
sg9
I0
sg10
g6
sg11
g6
sg12
g6
sg13
g6
sg14
I1411
sg15
I0
sg16
I325000
sg17
I208510
sg18
g6
sg19
g6
sg20
I208510
sg21
I267093
sg22
I628522
sg23
g6
sg24
I0
ssS'MEYER ROCKFORD G'
p35
(dp36
g3
I232
sg4
I0
sg5
I1848227
sg7
g6
sg8
I00
sg9
F51.62704668925684
sg10
g6
sg11
g6
sg12
I22
sg13
I28
sg14
g6
sg15
F0.0
sg16
g6
sg17
I955873
sg18
I0
sg19
I0
sg20
I462384
sg21
g6
sg22
I1848227
sg23
I493489
sg24
F0.0
ssS'MCMAHON JEFFREY'
p37
(dp38
g3
I2355
sg4
F63.418176283504614
sg5
g6
sg7
I137108
sg8
I00
sg9
F66.39508556067727
sg10
g6
sg11
I694862
sg12
I2228
sg13
I48
sg14
I297353
sg15
F54.71698113207547
sg16
I2600000
sg17
I1662855
sg18
I58
sg19
I26
sg20
I558801
sg21
I370448
sg22
I4099771
sg23
I1104054
sg24
F1.0919781604367913
ssS'HORTON STANLEY C'
p39
(dp40
g3
I2350
sg4
I0
sg5
I3131860
sg7
g6
sg8
I00
sg9
F71.80407538025821
sg10
g6
sg11
g6
sg12
I1074
sg13
I1073
sg14
g6
sg15
F3.9391226499552374
sg16
g6
sg17
I7256648
sg18
I44
sg19
I15
sg20
I2046079
sg21
g6
sg22
I3131860
sg23
I5210569
sg24
F0.6342494714587738
ssS'PIPER GREGORY F'
p41
(dp42
g3
I1238
sg4
F23.019873632403694
sg5
I1130036
sg7
I43057
sg8
I00
sg9
F100.0
sg10
I-33333
sg11
g6
sg12
I742
sg13
I222
sg14
I778
sg15
F21.554770318021202
sg16
I400000
sg17
I880290
sg18
I61
sg19
I48
sg20
I409554
sg21
I197091
sg22
I1737629
sg23
I880290
sg24
F3.7325038880248838
ssS'HUMPHREY GENE E'
p43
(dp44
g3
I128
sg4
I0
sg5
I2964506
sg7
I4994
sg8
I00
sg9
F100.0
sg10
g6
sg11
g6
sg12
I119
sg13
I17
sg14
g6
sg15
F37.03703703703704
sg16
g6
sg17
I2282768
sg18
I10
sg19
I17
sg20
g6
sg21
I130724
sg22
I3100224
sg23
I2282768
sg24
F11.724137931034482
ssS'UMANOFF ADAM S'
p45
(dp46
g3
I111
sg4
F69.77242027809893
sg5
g6
sg7
I53122
sg8
I00
sg9
I0
sg10
g6
sg11
g6
sg12
I41
sg13
I18
sg14
g6
sg15
F40.0
sg16
I788750
sg17
g6
sg18
I12
sg19
I0
sg20
g6
sg21
I288589
sg22
I1130461
sg23
g6
sg24
F0.0
ssS'BLACHMAN JEREMY M'
p47
(dp48
g3
I2475
sg4
F42.18707735372872
sg5
g6
sg7
I84208
sg8
I00
sg9
F80.1917317892522
sg10
g6
sg11
I831809
sg12
I2326
sg13
I14
sg14
I272
sg15
F64.1025641025641
sg16
I850000
sg17
I954354
sg18
I25
sg19
I2
sg20
I189041
sg21
I248546
sg22
I2014835
sg23
I765313
sg24
F0.08074283407347597
ssS'SUNDE MARTIN'
p49
(dp50
g3
I2647
sg4
F45.30571324460749
sg5
g6
sg7
g6
sg8
I00
sg9
I0
sg10
g6
sg11
I476451
sg12
I2565
sg13
I38
sg14
I111122
sg15
F49.333333333333336
sg16
I700000
sg17
I698920
sg18
I37
sg19
I13
sg20
I698920
sg21
I257486
sg22
I1545059
sg23
g6
sg24
F0.4887218045112782
ssS'GIBBS DANA R'
p51
(dp52
g3
I169
sg4
I0
sg5
I504610
sg7
g6
sg8
I00
sg9
F100.0
sg10
g6
sg11
I461912
sg12
I23
sg13
I12
sg14
g6
sg15
F0.0
sg16
g6
sg17
I2218275
sg18
I0
sg19
I0
sg20
g6
sg21
g6
sg22
I966522
sg23
I2218275
sg24
F0.0
ssS'LOWRY CHARLES P'
p53
(dp54
g3
g6
sg4
I0
sg5
g6
sg7
g6
sg8
I00
sg9
F100.0
sg10
g6
sg11
g6
sg12
g6
sg13
g6
sg14
g6
sg15
I0
sg16
g6
sg17
I372205
sg18
g6
sg19
g6
sg20
I153686
sg21
g6
sg22
g6
sg23
I372205
sg24
I0
ssS'COLWELL WESLEY'
p55
(dp56
g3
I1758
sg4
F80.51832328643587
sg5
I27610
sg7
I16514
sg8
I01
sg9
I0
sg10
I-144062
sg11
g6
sg12
I1132
sg13
I40
sg14
I101740
sg15
F85.71428571428571
sg16
I1200000
sg17
I698242
sg18
I240
sg19
I11
sg20
I698242
sg21
I288542
sg22
I1490344
sg23
g6
sg24
F0.6218202374222724
ssS'MULLER MARK S'
p57
(dp58
g3
I136
sg4
F34.35277804670104
sg5
I842924
sg7
g6
sg8
I00
sg9
F74.55422176549637
sg10
I-719000
sg11
I1725545
sg12
I114
sg13
I16
sg14
I947
sg15
F42.857142857142854
sg16
I1100000
sg17
I1416848
sg18
I12
sg19
I0
sg20
I360528
sg21
I251654
sg22
I3202070
sg23
I1056320
sg24
F0.0
ssS'JACKSON CHARLENE R'
p59
(dp60
g3
I258
sg4
F45.3577273238578
sg5
g6
sg7
I10181
sg8
I00
sg9
F25.500079230021978
sg10
g6
sg11
g6
sg12
I117
sg13
I56
sg14
I2435
sg15
F30.864197530864196
sg16
I250000
sg17
I725735
sg18
I25
sg19
I19
sg20
I540672
sg21
I288558
sg22
I551174
sg23
I185063
sg24
F6.859205776173286
ssS'WESTFAHL RICHARD K'
p61
(dp62
g3
g6
sg4
I0
sg5
g6
sg7
I51870
sg8
I00
sg9
I0
sg10
I-10800
sg11
I256191
sg12
g6
sg13
g6
sg14
I401130
sg15
I0
sg16
g6
sg17
I384930
sg18
g6
sg19
g6
sg20
I384930
sg21
I63744
sg22
I762135
sg23
g6
sg24
I0
ssS'WALTERS GARETH W'
p63
(dp64
g3
g6
sg4
I0
sg5
I53625
sg7
I33785
sg8
I00
sg9
F100.0
sg10
g6
sg11
g6
sg12
g6
sg13
g6
sg14
g6
sg15
I0
sg16
g6
sg17
I1030329
sg18
g6
sg19
g6
sg20
g6
sg21
g6
sg22
I87410
sg23
I1030329
sg24
I0
ssS'WALLS JR ROBERT H'
p65
(dp66
g3
I671
sg4
F47.254250102847486
sg5
g6
sg7
I50936
sg8
I00
sg9
F73.68276335790644
sg10
g6
sg11
I540751
sg12
I215
sg13
I146
sg14
I2
sg15
F10.429447852760736
sg16
I850000
sg17
I5898997
sg18
I17
sg19
I0
sg20
I1552453
sg21
I357091
sg22
I1798780
sg23
I4346544
sg24
F0.0
ssS'KITCHEN LOUISE'
p67
(dp68
g3
I8305
sg4
F89.30780973748978
sg5
g6
sg7
I5774
sg8
I00
sg9
F14.811849918577044
sg10
g6
sg11
g6
sg12
I3669
sg13
I1728
sg14
I93925
sg15
F12.683173319858515
sg16
I3100000
sg17
I547143
sg18
I251
sg19
I194
sg20
I466101
sg21
I271442
sg22
I3471141
sg23
I81042
sg24
F2.282621484880574
ssS'CHAN RONNIE'
p69
(dp70
g3
g6
sg4
I0
sg5
g6
sg7
g6
sg8
I00
sg9
I0
sg10
I-98784
sg11
g6
sg12
g6
sg13
g6
sg14
g6
sg15
I0
sg16
g6
sg17
g6
sg18
g6
sg19
g6
sg20
I32460
sg21
g6
sg22
g6
sg23
g6
sg24
I0
ssS'BELFER ROBERT'
p71
(dp72
g3
g6
sg4
I0
sg5
I-102500
sg7
g6
sg8
I00
sg9
F-7.4501621572585215
sg10
g6
sg11
g6
sg12
g6
sg13
g6
sg14
g6
sg15
I0
sg16
g6
sg17
I-44093
sg18
g6
sg19
g6
sg20
g6
sg21
g6
sg22
I102500
sg23
I3285
sg24
I0
ssS'SHANKMAN JEFFREY A'
p73
(dp74
g3
I3221
sg4
F65.81757605714546
sg5
g6
sg7
I178979
sg8
I00
sg9
F69.58849633331484
sg10
g6
sg11
I554422
sg12
I1730
sg13
I2681
sg14
I1191
sg15
F3.3873873873873874
sg16
I2000000
sg17
I2072035
sg18
I94
sg19
I83
sg20
I630137
sg21
I304110
sg22
I3038702
sg23
I1441898
sg24
F2.5121065375302662
ssS'WODRASKA JOHN'
p75
(dp76
g3
g6
sg4
I0
sg5
g6
sg7
g6
sg8
I00
sg9
I0
sg10
g6
sg11
g6
sg12
g6
sg13
g6
sg14
I189583
sg15
I0
sg16
g6
sg17
g6
sg18
g6
sg19
g6
sg20
g6
sg21
g6
sg22
I189583
sg23
g6
sg24
I0
ssS'BERGSIEKER RICHARD P'
p77
(dp78
g3
I383
sg4
F40.39751151329078
sg5
g6
sg7
I59175
sg8
I00
sg9
I0
sg10
I-485813
sg11
I180250
sg12
I233
sg13
I59
sg14
I427316
sg15
F6.349206349206349
sg16
I250000
sg17
I659249
sg18
I4
sg19
I0
sg20
I659249
sg21
I187922
sg22
I618850
sg23
g6
sg24
F0.0
ssS'URQUHART JOHN A'
p79
(dp80
g3
g6
sg4
I0
sg5
g6
sg7
I228656
sg8
I00
sg9
I0
sg10
I-36666
sg11
g6
sg12
g6
sg13
g6
sg14
g6
sg15
I0
sg16
g6
sg17
g6
sg18
g6
sg19
g6
sg20
g6
sg21
g6
sg22
I228656
sg23
g6
sg24
I0
ssS'BIBI PHILIPPE A'
p81
(dp82
g3
I1607
sg4
F48.83783056496091
sg5
g6
sg7
I38559
sg8
I00
sg9
F79.49459165122768
sg10
g6
sg11
I369721
sg12
I1336
sg13
I40
sg14
I425688
sg15
F36.507936507936506
sg16
I1000000
sg17
I1843816
sg18
I23
sg19
I8
sg20
I378082
sg21
I213625
sg22
I2047593
sg23
I1465734
sg24
F0.49535603715170284
ssS'RIEKER PAULA H'
p83
(dp84
g3
I1328
sg4
F63.68847238649804
sg5
I214678
sg7
I33271
sg8
I01
sg9
F85.21804566918219
sg10
I-100000
sg11
g6
sg12
I1258
sg13
I82
sg14
I1950
sg15
F29.914529914529915
sg16
I700000
sg17
I1918887
sg18
I35
sg19
I48
sg20
I283649
sg21
I249201
sg22
I1099100
sg23
I1635238
sg24
F3.488372093023256
ssS'WHALEY DAVID A'
p85
(dp86
g3
g6
sg4
I0
sg5
g6
sg7
g6
sg8
I00
sg9
F100.0
sg10
g6
sg11
g6
sg12
g6
sg13
g6
sg14
g6
sg15
I0
sg16
g6
sg17
I98718
sg18
g6
sg19
g6
sg20
g6
sg21
g6
sg22
g6
sg23
I98718
sg24
I0
ssS'BECK SALLY W'
p87
(dp88
g3
I7315
sg4
F72.23435300721931
sg5
g6
sg7
I37172
sg8
I00
sg9
I0
sg10
g6
sg11
g6
sg12
I2639
sg13
I4343
sg14
I566
sg15
F3.209271227991977
sg16
I700000
sg17
I126027
sg18
I144
sg19
I386
sg20
I126027
sg21
I231330
sg22
I969068
sg23
g6
sg24
F5.012336060251915
ssS'HAUG DAVID L'
p89
(dp90
g3
I573
sg4
I0
sg5
g6
sg7
I475
sg8
I00
sg9
I0
sg10
g6
sg11
g6
sg12
I471
sg13
I19
sg14
g6
sg15
F17.391304347826086
sg16
g6
sg17
I2217299
sg18
I4
sg19
I7
sg20
I2217299
sg21
g6
sg22
I475
sg23
g6
sg24
F1.206896551724138
ssS'ECHOLS JOHN B'
p91
(dp92
g3
g6
sg4
F7.428526432925605
sg5
g6
sg7
I21530
sg8
I00
sg9
F59.610819661407355
sg10
g6
sg11
I2234774
sg12
g6
sg13
g6
sg14
I53775
sg15
I0
sg16
I200000
sg17
I1008941
sg18
g6
sg19
g6
sg20
I407503
sg21
I182245
sg22
I2692324
sg23
I601438
sg24
I0
ssS'MENDELSOHN JOHN'
p93
(dp94
g3
g6
sg4
I0
sg5
g6
sg7
I148
sg8
I00
sg9
I0
sg10
I-103750
sg11
g6
sg12
g6
sg13
g6
sg14
g6
sg15
I0
sg16
g6
sg17
g6
sg18
g6
sg19
g6
sg20
g6
sg21
g6
sg22
I148
sg23
g6
sg24
I0
ssS'HICKERSON GARY J'
p95
(dp96
g3
I1320
sg4
F81.66025873812805
sg5
g6
sg7
I98849
sg8
I00
sg9
I0
sg10
g6
sg11
I69223
sg12
I900
sg13
I27
sg14
I1936
sg15
F59.70149253731343
sg16
I1700000
sg17
I441096
sg18
I40
sg19
I1
sg20
I441096
sg21
I211788
sg22
I2081796
sg23
g6
sg24
F0.0757002271006813
ssS'CLINE KENNETH W'
p97
(dp98
g3
g6
sg4
I0
sg5
g6
sg7
g6
sg8
I00
sg9
I0
sg10
g6
sg11
g6
sg12
g6
sg13
g6
sg14
g6
sg15
I0
sg16
g6
sg17
I189518
sg18
g6
sg19
g6
sg20
I662086
sg21
g6
sg22
g6
sg23
g6
sg24
I0
ssS'LEWIS RICHARD'
p99
(dp100
g3
I952
sg4
I0
sg5
g6
sg7
g6
sg8
I00
sg9
F100.0
sg10
g6
sg11
g6
sg12
I739
sg13
I26
sg14
g6
sg15
F27.77777777777778
sg16
g6
sg17
I850477
sg18
I10
sg19
I0
sg20
g6
sg21
g6
sg22
g6
sg23
I850477
sg24
F0.0
ssS'HAYES ROBERT E'
p101
(dp102
g3
I504
sg4
I0
sg5
I7961
sg7
g6
sg8
I00
sg9
I0
sg10
g6
sg11
g6
sg12
I50
sg13
I12
sg14
g6
sg15
F57.14285714285714
sg16
g6
sg17
I151418
sg18
I16
sg19
I0
sg20
I151418
sg21
g6
sg22
I7961
sg23
g6
sg24
F0.0
ssS'MCCARTY DANNY J'
p103
(dp104
g3
I1433
sg4
I0
sg5
g6
sg7
g6
sg8
I00
sg9
F87.54089633971995
sg10
g6
sg11
g6
sg12
I508
sg13
I215
sg14
g6
sg15
F10.416666666666668
sg16
g6
sg17
I758931
sg18
I25
sg19
I2
sg20
I94556
sg21
g6
sg22
g6
sg23
I664375
sg24
F0.13937282229965156
ssS'KOPPER MICHAEL J'
p105
(dp106
g3
g6
sg4
F30.158952760524343
sg5
g6
sg7
I118134
sg8
I01
sg9
I0
sg10
g6
sg11
I602671
sg12
g6
sg13
g6
sg14
I907502
sg15
I0
sg16
I800000
sg17
I985032
sg18
g6
sg19
g6
sg20
I985032
sg21
I224305
sg22
I2652612
sg23
g6
sg24
I0
ssS'LEFF DANIEL P'
p107
(dp108
g3
I2822
sg4
F37.53432514034084
sg5
g6
sg7
g6
sg8
I00
sg9
I0
sg10
g6
sg11
I1387399
sg12
I2672
sg13
I63
sg14
I3083
sg15
F51.53846153846153
sg16
I1000000
sg17
I360528
sg18
I67
sg19
I14
sg20
I360528
sg21
I273746
sg22
I2664228
sg23
g6
sg24
F0.4936530324400564
ssS'LAVORATO JOHN J'
p109
(dp110
g3
I7259
sg4
F76.7330372269371
sg5
g6
sg7
I49537
sg8
I00
sg9
F80.489241252034
sg10
g6
sg11
I2035380
sg12
I3962
sg13
I2585
sg14
I1552
sg15
F16.96113074204947
sg16
I8000000
sg17
I5167144
sg18
I528
sg19
I411
sg20
I1008149
sg21
I339288
sg22
I10425757
sg23
I4158995
sg24
F5.358539765319426
ssS'BERBERIAN DAVID'
p111
(dp112
g3
g6
sg4
I0
sg5
g6
sg7
I11892
sg8
I00
sg9
F65.14218708895034
sg10
g6
sg11
g6
sg12
g6
sg13
g6
sg14
g6
sg15
I0
sg16
g6
sg17
I2493616
sg18
g6
sg19
g6
sg20
I869220
sg21
I216582
sg22
I228474
sg23
I1624396
sg24
I0
ssS'DETMERING TIMOTHY J'
p113
(dp114
g3
g6
sg4
F35.281919137161985
sg5
I875307
sg7
I52255
sg8
I00
sg9
F100.0
sg10
I-775241
sg11
I415657
sg12
g6
sg13
g6
sg14
I1105
sg15
I0
sg16
I425000
sg17
I2027865
sg18
g6
sg19
g6
sg20
I315068
sg21
I210500
sg22
I1204583
sg23
I2027865
sg24
I0
ssS'WAKEHAM JOHN'
p115
(dp116
g3
g6
sg4
I0
sg5
g6
sg7
I103773
sg8
I00
sg9
I0
sg10
g6
sg11
g6
sg12
g6
sg13
g6
sg14
g6
sg15
I0
sg16
g6
sg17
g6
sg18
g6
sg19
g6
sg20
g6
sg21
g6
sg22
I213071
sg23
g6
sg24
I0
ssS'POWERS WILLIAM'
p117
(dp118
g3
I653
sg4
I0
sg5
g6
sg7
g6
sg8
I00
sg9
I0
sg10
I-17500
sg11
g6
sg12
I12
sg13
I26
sg14
g6
sg15
F0.0
sg16
g6
sg17
g6
sg18
I0
sg19
I0
sg20
g6
sg21
g6
sg22
g6
sg23
g6
sg24
F0.0
ssS'GOLD JOSEPH'
p119
(dp120
g3
g6
sg4
F34.93290320837757
sg5
g6
sg7
g6
sg8
I00
sg9
F49.73900737342627
sg10
g6
sg11
I304805
sg12
g6
sg13
g6
sg14
I819288
sg15
I0
sg16
I750000
sg17
I877611
sg18
g6
sg19
g6
sg20
I441096
sg21
I272880
sg22
I2146973
sg23
I436515
sg24
I0
ssS'BANNANTINE JAMES M'
p121
(dp122
g3
I566
sg4
I0
sg5
g6
sg7
I56301
sg8
I00
sg9
F77.16538631639594
sg10
I-5104
sg11
g6
sg12
I465
sg13
I29
sg14
I864523
sg15
F57.35294117647059
sg16
g6
sg17
I5243487
sg18
I39
sg19
I0
sg20
I1757552
sg21
I477
sg22
I916197
sg23
I4046157
sg24
F0.0
ssS'DUNCAN JOHN H'
p123
(dp124
g3
g6
sg4
I0
sg5
g6
sg7
g6
sg8
I00
sg9
F100.0
sg10
I-25000
sg11
g6
sg12
g6
sg13
g6
sg14
g6
sg15
I0
sg16
g6
sg17
I371750
sg18
g6
sg19
g6
sg20
g6
sg21
g6
sg22
I77492
sg23
I371750
sg24
I0
ssS'SHAPIRO RICHARD S'
p125
(dp126
g3
I15149
sg4
F61.46293123338137
sg5
g6
sg7
I137767
sg8
I00
sg9
F61.58423345062467
sg10
g6
sg11
g6
sg12
I4527
sg13
I1215
sg14
I705
sg15
F5.740884406516679
sg16
I650000
sg17
I987001
sg18
I74
sg19
I65
sg20
I379164
sg21
I269076
sg22
I1057548
sg23
I607837
sg24
F0.42723807019850135
ssS'SHERRIFF JOHN R'
p127
(dp128
g3
I3187
sg4
F34.59897937624037
sg5
g6
sg7
g6
sg8
I00
sg9
F58.66310512492562
sg10
g6
sg11
I554422
sg12
I2103
sg13
I92
sg14
I1852186
sg15
F23.333333333333332
sg16
I1500000
sg17
I3128982
sg18
I28
sg19
I23
sg20
I1293424
sg21
I428780
sg22
I4335388
sg23
I1835558
sg24
F0.7165109034267912
ssS'SHELBY REX'
p129
(dp130
g3
I225
sg4
F9.980612659908129
sg5
g6
sg7
I22884
sg8
I01
sg9
F65.14218708895034
sg10
I-4167
sg11
g6
sg12
I91
sg13
I39
sg14
I1573324
sg15
F25.0
sg16
I200000
sg17
I2493616
sg18
I13
sg19
I14
sg20
I869220
sg21
I211844
sg22
I2003885
sg23
I1624396
sg24
F5.857740585774058
ssS'LEMAISTRE CHARLES'
p131
(dp132
g3
g6
sg4
I0
sg5
g6
sg7
g6
sg8
I00
sg9
F100.0
sg10
I-25000
sg11
g6
sg12
g6
sg13
g6
sg14
g6
sg15
I0
sg16
g6
sg17
I412878
sg18
g6
sg19
g6
sg20
g6
sg21
g6
sg22
I87492
sg23
I412878
sg24
I0
ssS'DEFFNER JOSEPH M'
p133
(dp134
g3
I714
sg4
F49.642203815996204
sg5
g6
sg7
I41626
sg8
I00
sg9
F10.915074963413332
sg10
g6
sg11
I335349
sg12
I552
sg13
I74
sg14
I25553
sg15
F60.84656084656085
sg16
I600000
sg17
I159211
sg18
I115
sg19
I4
sg20
I141833
sg21
I206121
sg22
I1208649
sg23
I17378
sg24
F0.5571030640668524
ssS'KISHKILL JOSEPH G'
p135
(dp136
g3
g6
sg4
I0
sg5
g6
sg7
I116335
sg8
I00
sg9
I0
sg10
I-51042
sg11
g6
sg12
g6
sg13
g6
sg14
I465357
sg15
I0
sg16
g6
sg17
I1034346
sg18
g6
sg19
g6
sg20
I1034346
sg21
I174246
sg22
I704896
sg23
g6
sg24
I0
ssS'WHALLEY LAWRENCE G'
p137
(dp138
g3
I6019
sg4
F64.13581057189047
sg5
g6
sg7
I57838
sg8
I00
sg9
F54.00371796194098
sg10
g6
sg11
I808346
sg12
I3920
sg13
I556
sg14
I301026
sg15
F25.067385444743934
sg16
I3000000
sg17
I6079137
sg18
I186
sg19
I24
sg20
I2796177
sg21
I510364
sg22
I4677574
sg23
I3282960
sg24
F0.3971537315902697
ssS'MCCONNELL MICHAEL S'
p139
(dp140
g3
I3329
sg4
F52.34695178940917
sg5
g6
sg7
I81364
sg8
I00
sg9
F52.33356947246604
sg10
g6
sg11
I554422
sg12
I2189
sg13
I2742
sg14
I540
sg15
F3.2462949894142556
sg16
I1100000
sg17
I3101279
sg18
I92
sg19
I194
sg20
I1478269
sg21
I365038
sg22
I2101364
sg23
I1623010
sg24
F5.506670451319898
ssS'PIRO JIM'
p141
(dp142
g3
I58
sg4
I0
sg5
g6
sg7
g6
sg8
I00
sg9
I0
sg10
g6
sg11
g6
sg12
I3
sg13
I16
sg14
g6
sg15
F0.0
sg16
g6
sg17
I47304
sg18
I0
sg19
I1
sg20
I47304
sg21
g6
sg22
g6
sg23
g6
sg24
F1.694915254237288
ssS'DELAINEY DAVID W'
p143
(dp144
g3
I3093
sg4
F63.18477819720769
sg5
g6
sg7
I86174
sg8
I01
sg9
F63.39091172441614
sg10
g6
sg11
I1294981
sg12
I2097
sg13
I3069
sg14
I1661
sg15
F2.1052631578947367
sg16
I3000000
sg17
I3614261
sg18
I66
sg19
I609
sg20
I1323148
sg21
I365163
sg22
I4747979
sg23
I2291113
sg24
F16.450567260940034
ssS'SULLIVAN-SHAKLOVITZ COLLEEN'
p145
(dp146
g3
g6
sg4
F10.006444150032621
sg5
I181993
sg7
g6
sg8
I00
sg9
F100.0
sg10
g6
sg11
I554422
sg12
g6
sg13
g6
sg14
I162
sg15
I0
sg16
I100000
sg17
I1362375
sg18
g6
sg19
g6
sg20
g6
sg21
I162779
sg22
I999356
sg23
I1362375
sg24
I0
ssS'WROBEL BRUCE'
p147
(dp148
g3
g6
sg4
I0
sg5
g6
sg7
g6
sg8
I00
sg9
F100.0
sg10
g6
sg11
g6
sg12
g6
sg13
g6
sg14
g6
sg15
I0
sg16
g6
sg17
I139130
sg18
g6
sg19
g6
sg20
g6
sg21
g6
sg22
g6
sg23
I139130
sg24
I0
ssS'LINDHOLM TOD A'
p149
(dp150
g3
g6
sg4
F22.833943570475252
sg5
I204075
sg7
I57727
sg8
I00
sg9
F83.19804008083003
sg10
g6
sg11
I175000
sg12
g6
sg13
g6
sg14
I2630
sg15
I0
sg16
I200000
sg17
I3064208
sg18
g6
sg19
g6
sg20
I514847
sg21
I236457
sg22
I875889
sg23
I2549361
sg24
I0
ssS'MEYER JEROME J'
p151
(dp152
g3
g6
sg4
I0
sg5
g6
sg7
I2151
sg8
I00
sg9
I0
sg10
I-38346
sg11
g6
sg12
g6
sg13
g6
sg14
g6
sg15
I0
sg16
g6
sg17
g6
sg18
g6
sg19
g6
sg20
g6
sg21
g6
sg22
I2151
sg23
g6
sg24
I0
ssS'LAY KENNETH L'
p153
(dp154
g3
I4273
sg4
F6.759380061719514
sg5
I202911
sg7
I99832
sg8
I01
sg9
F69.94161972212709
sg10
I-300000
sg11
I3600000
sg12
I2411
sg13
I36
sg14
I10359729
sg15
F77.35849056603774
sg16
I7000000
sg17
I49110078
sg18
I123
sg19
I16
sg20
I14761694
sg21
I1072321
sg22
I103559793
sg23
I34348384
sg24
F0.37304733038004195
ssS'BUTTS ROBERT H'
p155
(dp156
g3
g6
sg4
F58.98164648445794
sg5
g6
sg7
I9410
sg8
I00
sg9
I0
sg10
I-75000
sg11
I175000
sg12
g6
sg13
g6
sg14
I150656
sg15
I0
sg16
I750000
sg17
I417619
sg18
g6
sg19
g6
sg20
I417619
sg21
I261516
sg22
I1271582
sg23
g6
sg24
I0
ssS'OLSON CINDY K'
p157
(dp158
g3
I1184
sg4
F56.75124114964394
sg5
I77716
sg7
I63791
sg8
I00
sg9
F62.79949500587511
sg10
g6
sg11
I100000
sg12
I856
sg13
I52
sg14
I972
sg15
F27.77777777777778
sg16
I750000
sg17
I2606763
sg18
I20
sg19
I15
sg20
I969729
sg21
I329078
sg22
I1321557
sg23
I1637034
sg24
F1.2510425354462051
ssS'MCDONALD REBECCA'
p159
(dp160
g3
I894
sg4
I0
sg5
g6
sg7
g6
sg8
I00
sg9
F44.77451953036776
sg10
g6
sg11
g6
sg12
I720
sg13
I13
sg14
g6
sg15
F80.59701492537313
sg16
g6
sg17
I1691366
sg18
I54
sg19
I1
sg20
I934065
sg21
g6
sg22
g6
sg23
I757301
sg24
F0.11173184357541899
ssS'CUMBERLAND MICHAEL S'
p161
(dp162
g3
g6
sg4
F40.22496274549604
sg5
g6
sg7
I22344
sg8
I00
sg9
I0
sg10
g6
sg11
I275000
sg12
g6
sg13
g6
sg14
I713
sg15
I0
sg16
I325000
sg17
I207940
sg18
g6
sg19
g6
sg20
I207940
sg21
I184899
sg22
I807956
sg23
g6
sg24
I0
ssS'GAHN ROBERT S'
p163
(dp164
g3
g6
sg4
F56.61542219779365
sg5
I73122
sg7
I50080
sg8
I00
sg9
F26.125289149328168
sg10
I-1042
sg11
g6
sg12
g6
sg13
g6
sg14
I76547
sg15
I0
sg16
I509870
sg17
I318607
sg18
g6
sg19
g6
sg20
I235370
sg21
I192008
sg22
I900585
sg23
I83237
sg24
I0
ssS'MCCLELLAN GEORGE'
p165
(dp166
g3
I1744
sg4
F68.24577274309334
sg5
g6
sg7
I228763
sg8
I00
sg9
F53.4640627686971
sg10
I-125000
sg11
g6
sg12
I1469
sg13
I49
sg14
I51587
sg15
F51.48514851485149
sg16
I900000
sg17
I947861
sg18
I52
sg19
I0
sg20
I441096
sg21
I263413
sg22
I1318763
sg23
I506765
sg24
F0.0
ssS'HERMANN ROBERT J'
p167
(dp168
g3
g6
sg4
F53.95152532523135
sg5
g6
sg7
I48357
sg8
I00
sg9
F28.06331682960852
sg10
I-280000
sg11
I150000
sg12
g6
sg13
g6
sg14
I416441
sg15
I0
sg16
I700000
sg17
I668132
sg18
g6
sg19
g6
sg20
I480632
sg21
I262663
sg22
I1297461
sg23
I187500
sg24
I0
ssS'SCRIMSHAW MATTHEW'
p169
(dp170
g3
g6
sg4
I0
sg5
g6
sg7
g6
sg8
I00
sg9
F100.0
sg10
g6
sg11
g6
sg12
g6
sg13
g6
sg14
g6
sg15
I0
sg16
g6
sg17
I759557
sg18
g6
sg19
g6
sg20
g6
sg21
g6
sg22
g6
sg23
I759557
sg24
I0
ssS'GATHMANN WILLIAM D'
p171
(dp172
g3
g6
sg4
I0
sg5
g6
sg7
g6
sg8
I00
sg9
F90.15123164864087
sg10
g6
sg11
g6
sg12
g6
sg13
g6
sg14
g6
sg15
I0
sg16
g6
sg17
I1945360
sg18
g6
sg19
g6
sg20
I264013
sg21
g6
sg22
g6
sg23
I1753766
sg24
I0
ssS'HAEDICKE MARK E'
p173
(dp174
g3
I4009
sg4
F29.799964499172727
sg5
I2157527
sg7
I76169
sg8
I00
sg9
F75.80059121348187
sg10
I-934484
sg11
I983346
sg12
I1847
sg13
I1941
sg14
I52382
sg15
F8.486562942008486
sg16
I1150000
sg17
I803094
sg18
I180
sg19
I61
sg20
I524169
sg21
I374125
sg22
I3859065
sg23
I608750
sg24
F1.4987714987714986
ssS'BOWEN JR RAYMOND M'
p175
(dp176
g3
I1858
sg4
F50.56958205926081
sg5
g6
sg7
I65907
sg8
I01
sg9
I0
sg10
I-833
sg11
I974293
sg12
I1593
sg13
I27
sg14
I1621
sg15
F83.8323353293413
sg16
I1350000
sg17
I252055
sg18
I140
sg19
I15
sg20
I252055
sg21
I278601
sg22
I2669589
sg23
g6
sg24
F0.800854244527496
ssS'GILLIS JOHN'
p177
(dp178
g3
g6
sg4
I0
sg5
g6
sg7
g6
sg8
I00
sg9
F11.44662019359886
sg10
g6
sg11
g6
sg12
g6
sg13
g6
sg14
g6
sg15
I0
sg16
g6
sg17
I85641
sg18
g6
sg19
g6
sg20
I75838
sg21
g6
sg22
g6
sg23
I9803
sg24
I0
ssS'FITZGERALD JAY L'
p179
(dp180
g3
I936
sg4
F24.737482303865338
sg5
g6
sg7
I23870
sg8
I00
sg9
F40.98484119523623
sg10
g6
sg11
I556416
sg12
I723
sg13
I16
sg14
I285414
sg15
F5.88235294117647
sg16
I350000
sg17
I1621236
sg18
I1
sg19
I8
sg20
I956775
sg21
I199157
sg22
I1414857
sg23
I664461
sg24
F0.847457627118644
ssS'MORAN MICHAEL P'
p181
(dp182
g3
I672
sg4
I0
sg5
g6
sg7
g6
sg8
I00
sg9
F26.923546515571513
sg10
g6
sg11
g6
sg12
I127
sg13
I19
sg14
g6
sg15
F0.0
sg16
g6
sg17
I221141
sg18
I0
sg19
I0
sg20
I161602
sg21
g6
sg22
g6
sg23
I59539
sg24
F0.0
ssS'REDMOND BRIAN L'
p183
(dp184
g3
I1671
sg4
I0
sg5
g6
sg7
I14689
sg8
I00
sg9
F95.16768893140511
sg10
g6
sg11
g6
sg12
I1063
sg13
I221
sg14
g6
sg15
F48.0
sg16
g6
sg17
I7890324
sg18
I204
sg19
I49
sg20
I381285
sg21
I96840
sg22
I111529
sg23
I7509039
sg24
F2.8488372093023258
ssS'BAZELIDES PHILIP J'
p185
(dp186
g3
g6
sg4
I0
sg5
I684694
sg7
g6
sg8
I00
sg9
F100.0
sg10
g6
sg11
I93750
sg12
g6
sg13
g6
sg14
I874
sg15
I0
sg16
g6
sg17
I1599641
sg18
g6
sg19
g6
sg20
g6
sg21
I80818
sg22
I860136
sg23
I1599641
sg24
I0
ssS'BELDEN TIMOTHY N'
p187
(dp188
g3
I7991
sg4
F95.42624640333864
sg5
I2144013
sg7
I17355
sg8
I01
sg9
F85.81360487258092
sg10
I-2334434
sg11
g6
sg12
I5521
sg13
I484
sg14
I210698
sg15
F32.02247191011236
sg16
I5249999
sg17
I1110705
sg18
I228
sg19
I108
sg20
I157569
sg21
I213999
sg22
I5501630
sg23
I953136
sg24
F1.3334979627114458
ssS'DURAN WILLIAM D'
p189
(dp190
g3
I904
sg4
F35.82922929416896
sg5
g6
sg7
I25785
sg8
I00
sg9
F88.47950222742259
sg10
g6
sg11
I1105218
sg12
I599
sg13
I12
sg14
I1568
sg15
F89.83050847457628
sg16
I750000
sg17
I1640910
sg18
I106
sg19
I3
sg20
I189041
sg21
I210692
sg22
I2093263
sg23
I1451869
sg24
F0.33076074972436603
ssS'THORN TERENCE H'
p191
(dp192
g3
I266
sg4
I0
sg5
I16586
sg7
I46145
sg8
I00
sg9
F92.41727960254025
sg10
g6
sg11
I200000
sg12
I73
sg13
I41
sg14
I426629
sg15
F0.0
sg16
g6
sg17
I4817796
sg18
I0
sg19
I0
sg20
I365320
sg21
I222093
sg22
I911453
sg23
I4452476
sg24
F0.0
ssS'FASTOW ANDREW S'
p193
(dp194
g3
g6
sg4
F53.628526745990136
sg5
g6
sg7
I55921
sg8
I01
sg9
I0
sg10
I-1386055
sg11
I1736055
sg12
g6
sg13
g6
sg14
I277464
sg15
I0
sg16
I1300000
sg17
I1794412
sg18
g6
sg19
g6
sg20
I1794412
sg21
I440698
sg22
I2424083
sg23
g6
sg24
I0
ssS'FOY JOE'
p195
(dp196
g3
I57
sg4
I0
sg5
I181755
sg7
g6
sg8
I00
sg9
F100.0
sg10
g6
sg11
g6
sg12
I2
sg13
I13
sg14
g6
sg15
F0.0
sg16
g6
sg17
I343434
sg18
I0
sg19
I0
sg20
g6
sg21
g6
sg22
I181755
sg23
I343434
sg24
F0.0
ssS'CALGER CHRISTOPHER F'
p197
(dp198
g3
I2598
sg4
F76.25219835087846
sg5
g6
sg7
I35818
sg8
I01
sg9
I0
sg10
I-262500
sg11
I375304
sg12
I2188
sg13
I144
sg14
I486
sg15
F58.01749271137027
sg16
I1250000
sg17
I126027
sg18
I199
sg19
I25
sg20
I126027
sg21
I240189
sg22
I1639297
sg23
g6
sg24
F0.9531071292413268
ssS'RICE KENNETH D'
p199
(dp200
g3
I905
sg4
F346.5003465003465
sg5
g6
sg7
I46950
sg8
I01
sg9
F87.80809916753388
sg10
I-3504386
sg11
I1617011
sg12
I864
sg13
I18
sg14
I174839
sg15
F70.0
sg16
I1750000
sg17
I22542539
sg18
I42
sg19
I4
sg20
I2748364
sg21
I420636
sg22
I505050
sg23
I19794175
sg24
F0.44004400440044
ssS'KAMINSKI WINCENTY J'
p201
(dp202
g3
I4607
sg4
F36.8045887961311
sg5
g6
sg7
I83585
sg8
I00
sg9
F87.0878870370693
sg10
g6
sg11
I323466
sg12
I583
sg13
I14368
sg14
I4669
sg15
F0.28454438198348253
sg16
I400000
sg17
I976037
sg18
I41
sg19
I171
sg20
I126027
sg21
I275101
sg22
I1086821
sg23
I850010
sg24
F3.5789033068229386
ssS'LOCKHART EUGENE E'
p203
(dp204
g3
g6
sg4
I0
sg5
g6
sg7
g6
sg8
I00
sg9
I0
sg10
g6
sg11
g6
sg12
g6
sg13
g6
sg14
g6
sg15
I0
sg16
g6
sg17
g6
sg18
g6
sg19
g6
sg20
g6
sg21
g6
sg22
g6
sg23
g6
sg24
I0
ssS'COX DAVID'
p205
(dp206
g3
I102
sg4
F72.63529003725282
sg5
g6
sg7
I27861
sg8
I00
sg9
F23.717347311417925
sg10
I-41250
sg11
g6
sg12
I71
sg13
I33
sg14
I494
sg15
F0.0
sg16
I800000
sg17
I495633
sg18
I0
sg19
I4
sg20
I378082
sg21
I314288
sg22
I1101393
sg23
I117551
sg24
F3.7735849056603774
ssS'OVERDYKE JR JERE C'
p207
(dp208
g3
g6
sg4
I0
sg5
g6
sg7
I18834
sg8
I00
sg9
F72.06993163550138
sg10
g6
sg11
I135836
sg12
g6
sg13
g6
sg14
I176
sg15
I0
sg16
g6
sg17
I7307594
sg18
g6
sg19
g6
sg20
I2041016
sg21
I94941
sg22
I249787
sg23
I5266578
sg24
I0
ssS'PEREIRA PAULO V. FERRAZ'
p209
(dp210
g3
g6
sg4
I0
sg5
g6
sg7
I27942
sg8
I00
sg9
I0
sg10
I-101250
sg11
g6
sg12
g6
sg13
g6
sg14
g6
sg15
I0
sg16
g6
sg17
g6
sg18
g6
sg19
g6
sg20
g6
sg21
g6
sg22
I27942
sg23
g6
sg24
I0
ssS'STABLER FRANK'
p211
(dp212
g3
g6
sg4
F44.96051118302795
sg5
g6
sg7
I16514
sg8
I00
sg9
I0
sg10
g6
sg11
g6
sg12
g6
sg13
g6
sg14
I356071
sg15
I0
sg16
I500000
sg17
I511734
sg18
g6
sg19
g6
sg20
I511734
sg21
I239502
sg22
I1112087
sg23
g6
sg24
I0
ssS'SKILLING JEFFREY K'
p213
(dp214
g3
I3627
sg4
F64.49594804206426
sg5
g6
sg7
I29336
sg8
I01
sg9
F73.77267561269261
sg10
g6
sg11
I1920000
sg12
I2042
sg13
I108
sg14
I22122
sg15
F44.89795918367347
sg16
I5600000
sg17
I26093672
sg18
I88
sg19
I30
sg20
I6843672
sg21
I1111258
sg22
I8682716
sg23
I19250000
sg24
F0.8203445447087777
ssS'BLAKE JR. NORMAN P'
p215
(dp216
g3
g6
sg4
I0
sg5
g6
sg7
I1279
sg8
I00
sg9
I0
sg10
I-113784
sg11
g6
sg12
g6
sg13
g6
sg14
g6
sg15
I0
sg16
g6
sg17
g6
sg18
g6
sg19
g6
sg20
g6
sg21
g6
sg22
I1279
sg23
g6
sg24
I0
ssS'SHERRICK JEFFREY B'
p217
(dp218
g3
I613
sg4
I0
sg5
g6
sg7
g6
sg8
I00
sg9
F77.84414243522943
sg10
g6
sg11
g6
sg12
I583
sg13
I25
sg14
g6
sg15
F60.9375
sg16
g6
sg17
I1832468
sg18
I39
sg19
I18
sg20
I405999
sg21
g6
sg22
g6
sg23
I1426469
sg24
F2.8526148969889067
ssS'PRENTICE JAMES'
p219
(dp220
g3
g6
sg4
I0
sg5
I564348
sg7
g6
sg8
I00
sg9
F80.93138150204558
sg10
g6
sg11
g6
sg12
g6
sg13
g6
sg14
g6
sg15
I0
sg16
g6
sg17
I1095040
sg18
g6
sg19
g6
sg20
I208809
sg21
g6
sg22
I564348
sg23
I886231
sg24
I0
ssS'GRAY RODNEY'
p221
(dp222
g3
g6
sg4
I0
sg5
I93585
sg7
g6
sg8
I00
sg9
I0
sg10
g6
sg11
I365625
sg12
g6
sg13
g6
sg14
I680833
sg15
I0
sg16
g6
sg17
g6
sg18
g6
sg19
g6
sg20
g6
sg21
I6615
sg22
I1146658
sg23
g6
sg24
I0
ssS'PICKERING MARK R'
p223
(dp224
g3
I898
sg4
F21.634251346732146
sg5
g6
sg7
I31653
sg8
I00
sg9
F100.0
sg10
g6
sg11
g6
sg12
I728
sg13
I67
sg14
g6
sg15
F9.45945945945946
sg16
I300000
sg17
I28798
sg18
I7
sg19
I0
sg20
g6
sg21
I655037
sg22
I1386690
sg23
I28798
sg24
F0.0
ssS'THE TRAVEL AGENCY IN THE PARK'
p225
(dp226
g3
g6
sg4
I0
sg5
g6
sg7
g6
sg8
I00
sg9
I0
sg10
g6
sg11
g6
sg12
g6
sg13
g6
sg14
I362096
sg15
I0
sg16
g6
sg17
g6
sg18
g6
sg19
g6
sg20
g6
sg21
g6
sg22
I362096
sg23
g6
sg24
I0
ssS'NOLES JAMES L'
p227
(dp228
g3
g6
sg4
I0
sg5
I774401
sg7
g6
sg8
I00
sg9
I0
sg10
g6
sg11
g6
sg12
g6
sg13
g6
sg14
g6
sg15
I0
sg16
g6
sg17
I368705
sg18
g6
sg19
g6
sg20
I463261
sg21
g6
sg22
I774401
sg23
g6
sg24
I0
ssS'KEAN STEVEN J'
p229
(dp230
g3
I12754
sg4
F57.22388616566773
sg5
g6
sg7
I41953
sg8
I00
sg9
F32.85937010960339
sg10
g6
sg11
I300000
sg12
I3639
sg13
I6759
sg14
I1231
sg15
F2.029279605739962
sg16
I1000000
sg17
I6153642
sg18
I140
sg19
I387
sg20
I4131594
sg21
I404338
sg22
I1747522
sg23
I2022048
sg24
F2.9449813560611826
ssS'FOWLER PEGGY'
p231
(dp232
g3
I517
sg4
I0
sg5
g6
sg7
g6
sg8
I00
sg9
F70.27878528057863
sg10
g6
sg11
g6
sg12
I10
sg13
I36
sg14
g6
sg15
F0.0
sg16
g6
sg17
I1884748
sg18
I0
sg19
I0
sg20
I560170
sg21
g6
sg22
g6
sg23
I1324578
sg24
F0.0
ssS'WASAFF GEORGE'
p233
(dp234
g3
I400
sg4
F31.419332073337554
sg5
I831299
sg7
g6
sg8
I00
sg9
F81.12420231790381
sg10
I-583325
sg11
I200000
sg12
I337
sg13
I30
sg14
I1425
sg15
F42.30769230769231
sg16
I325000
sg17
I2056427
sg18
I22
sg19
I7
sg20
I388167
sg21
I259996
sg22
I1034395
sg23
I1668260
sg24
F1.71990171990172
ssS'WHITE JR THOMAS E'
p235
(dp236
g3
g6
sg4
F23.263520370313888
sg5
g6
sg7
I81353
sg8
I00
sg9
F8.564701963923563
sg10
g6
sg11
g6
sg12
g6
sg13
g6
sg14
I1085463
sg15
I0
sg16
I450000
sg17
I15144123
sg18
g6
sg19
g6
sg20
I13847074
sg21
I317543
sg22
I1934359
sg23
I1297049
sg24
I0
ssS'CHRISTODOULOU DIOMEDES'
p237
(dp238
g3
g6
sg4
I0
sg5
g6
sg7
g6
sg8
I00
sg9
F84.35755201027989
sg10
g6
sg11
g6
sg12
g6
sg13
g6
sg14
g6
sg15
I0
sg16
g6
sg17
I6077885
sg18
g6
sg19
g6
sg20
I950730
sg21
g6
sg22
g6
sg23
I5127155
sg24
I0
ssS'ALLEN PHILLIP K'
p239
(dp240
g3
I2902
sg4
F93.09965431596618
sg5
I2869717
sg7
I13868
sg8
I00
sg9
F100.0
sg10
I-3081055
sg11
I304805
sg12
I1407
sg13
I2195
sg14
I152
sg15
F2.096342551293488
sg16
I4175000
sg17
I1729541
sg18
I47
sg19
I65
sg20
I126027
sg21
I201955
sg22
I4484442
sg23
I1729541
sg24
F2.1907650825749916
ssS'SHARP VICTORIA T'
p241
(dp242
g3
I3136
sg4
F38.05872588266114
sg5
I187469
sg7
I116337
sg8
I00
sg9
F56.881708679391906
sg10
g6
sg11
I422158
sg12
I2477
sg13
I136
sg14
I2401
sg15
F15.0
sg16
I600000
sg17
I494136
sg18
I24
sg19
I6
sg20
I213063
sg21
I248146
sg22
I1576511
sg23
I281073
sg24
F0.19096117122851686
ssS'JAEDICKE ROBERT'
p243
(dp244
g3
g6
sg4
I0
sg5
g6
sg7
g6
sg8
I00
sg9
F100.0
sg10
I-25000
sg11
g6
sg12
g6
sg13
g6
sg14
g6
sg15
I0
sg16
g6
sg17
I431750
sg18
g6
sg19
g6
sg20
I44093
sg21
g6
sg22
I83750
sg23
I431750
sg24
I0
ssS'WINOKUR JR. HERBERT S'
p245
(dp246
g3
g6
sg4
I0
sg5
g6
sg7
I1413
sg8
I00
sg9
I0
sg10
I-25000
sg11
g6
sg12
g6
sg13
g6
sg14
g6
sg15
I0
sg16
g6
sg17
g6
sg18
g6
sg19
g6
sg20
g6
sg21
g6
sg22
I84992
sg23
g6
sg24
I0
ssS'BROWN MICHAEL'
p247
(dp248
g3
I1486
sg4
I0
sg5
g6
sg7
I49288
sg8
I00
sg9
I0
sg10
g6
sg11
g6
sg12
I761
sg13
I41
sg14
g6
sg15
F24.074074074074073
sg16
g6
sg17
g6
sg18
I13
sg19
I1
sg20
g6
sg21
g6
sg22
I49288
sg23
g6
sg24
F0.06724949562878278
ssS'BADUM JAMES P'
p249
(dp250
g3
g6
sg4
I0
sg5
I178980
sg7
I3486
sg8
I00
sg9
F100.0
sg10
g6
sg11
g6
sg12
g6
sg13
g6
sg14
g6
sg15
I0
sg16
g6
sg17
I257817
sg18
g6
sg19
g6
sg20
g6
sg21
g6
sg22
I182466
sg23
I257817
sg24
I0
ssS'HUGHES JAMES A'
p251
(dp252
g3
I719
sg4
I0
sg5
g6
sg7
g6
sg8
I00
sg9
F67.50447516706993
sg10
g6
sg11
g6
sg12
I589
sg13
I34
sg14
g6
sg15
F50.72463768115942
sg16
g6
sg17
I1118394
sg18
I35
sg19
I5
sg20
I363428
sg21
g6
sg22
g6
sg23
I754966
sg24
F0.6906077348066298
ssS'REYNOLDS LAWRENCE'
p253
(dp254
g3
g6
sg4
F25.350148932124977
sg5
I51365
sg7
I8409
sg8
I00
sg9
F98.54996256416852
sg10
I-200000
sg11
I156250
sg12
g6
sg13
g6
sg14
I202052
sg15
I0
sg16
I100000
sg17
I4221891
sg18
g6
sg19
g6
sg20
I201483
sg21
I76399
sg22
I394475
sg23
I4160672
sg24
I0
ssS'DIMICHELE RICHARD G'
p255
(dp256
g3
g6
sg4
F42.2270370428237
sg5
g6
sg7
I35812
sg8
I00
sg9
F98.48484848484848
sg10
g6
sg11
I694862
sg12
g6
sg13
g6
sg14
I374689
sg15
I0
sg16
I1000000
sg17
I8317782
sg18
g6
sg19
g6
sg20
I126027
sg21
I262788
sg22
I2368151
sg23
I8191755
sg24
I0
ssS'BHATNAGAR SANJAY'
p257
(dp258
g3
I523
sg4
I0
sg5
g6
sg7
g6
sg8
I00
sg9
I0
sg10
g6
sg11
g6
sg12
I463
sg13
I29
sg14
I137864
sg15
F0.0
sg16
g6
sS'total_stock_value'
p259
S'NaN'
p260
sg18
I0
sg19
I1
sg20
I-2604490
sg21
g6
sg22
I15456290
sg23
I2604490
sg24
F0.19083969465648853
ssS'CARTER REBECCA C'
p261
(dp262
g3
I312
sg4
F62.81972623163308
sg5
g6
sg7
g6
sg8
I00
sg9
I0
sg10
I-159792
sg11
I75000
sg12
I196
sg13
I15
sg14
I540
sg15
F65.9090909090909
sg16
I300000
sg17
g6
sg18
I29
sg19
I7
sg20
I307301
sg21
I261809
sg22
I477557
sg23
g6
sg24
F2.19435736677116
ssS'BUCHANAN HAROLD G'
p263
(dp264
g3
I1088
sg4
F47.40967745300041
sg5
g6
sg7
I600
sg8
I00
sg9
F81.36618350821337
sg10
g6
sg11
I304805
sg12
I23
sg13
I125
sg14
I1215
sg15
F0.0
sg16
I500000
sg17
I1014505
sg18
I0
sg19
I0
sg20
I189041
sg21
I248017
sg22
I1054637
sg23
I825464
sg24
F0.0
ssS'YEAP SOON'
p265
(dp266
g3
g6
sg4
I0
sg5
g6
sg7
I55097
sg8
I00
sg9
F100.0
sg10
g6
sg11
g6
sg12
g6
sg13
g6
sg14
g6
sg15
I0
sg16
g6
sg17
I192758
sg18
g6
sg19
g6
sg20
g6
sg21
g6
sg22
I55097
sg23
I192758
sg24
I0
ssS'MURRAY JULIA H'
p267
(dp268
g3
I2192
sg4
F49.24931728133919
sg5
g6
sg7
I57580
sg8
I00
sg9
F67.02998187329382
sg10
g6
sg11
I125000
sg12
I395
sg13
I45
sg14
I330
sg15
F19.642857142857142
sg16
I400000
sg17
I597461
sg18
I11
sg19
I2
sg20
I196983
sg21
I229284
sg22
I812194
sg23
I400478
sg24
F0.09115770282588878
ssS'GARLAND C KEVIN'
p269
(dp270
g3
I209
sg4
F54.262165417892085
sg5
g6
sg7
I48405
sg8
I00
sg9
F70.99747476156415
sg10
g6
sg11
I375304
sg12
I178
sg13
I44
sg14
I60814
sg15
F18.51851851851852
sg16
I850000
sg17
I896153
sg18
I10
sg19
I27
sg20
I259907
sg21
I231946
sg22
I1566469
sg23
I636246
sg24
F11.440677966101696
ssS'DODSON KEITH'
p271
(dp272
g3
I176
sg4
F21.879033946883958
sg5
g6
sg7
I28164
sg8
I00
sg9
I0
sg10
g6
sg11
g6
sg12
I114
sg13
I14
sg14
I774
sg15
F41.66666666666667
sg16
I70000
sg17
g6
sg18
I10
sg19
I3
sg20
g6
sg21
I221003
sg22
I319941
sg23
g6
sg24
F1.675977653631285
ssS'YEAGER F SCOTT'
p273
(dp274
g3
g6
sg4
I0
sg5
g6
sg7
I53947
sg8
I01
sg9
F69.90930736662875
sg10
g6
sg11
g6
sg12
g6
sg13
g6
sg14
I147950
sg15
I0
sg16
g6
sg17
I11884758
sg18
g6
sg19
g6
sg20
I3576206
sg21
I158403
sg22
I360300
sg23
I8308552
sg24
I0
ssS'HIRKO JOSEPH'
p275
(dp276
g3
g6
sg4
I0
sg5
I10259
sg7
I77978
sg8
I01
sg9
F100.0
sg10
g6
sg11
g6
sg12
g6
sg13
g6
sg14
I2856
sg15
I0
sg16
g6
sg17
I30766064
sg18
g6
sg19
g6
sg20
g6
sg21
g6
sg22
I91093
sg23
I30766064
sg24
I0
ssS'DIETRICH JANET R'
p277
(dp278
g3
I2572
sg4
F42.53919277627788
sg5
g6
sg7
I3475
sg8
I00
sg9
F83.10706149364614
sg10
g6
sg11
I556416
sg12
I1902
sg13
I63
sg14
I473
sg15
F82.88043478260869
sg16
I600000
sg17
I1865087
sg18
I305
sg19
I14
sg20
I315068
sg21
I250100
sg22
I1410464
sg23
I1550019
sg24
F0.5413766434648105
ssS'DERRICK JR. JAMES V'
p279
(dp280
g3
I2181
sg4
F145.19556935720107
sg5
g6
sg7
I51124
sg8
I00
sg9
F100.0
sg10
I-1284000
sg11
I484000
sg12
I1401
sg13
I909
sg14
I7482
sg15
F6.5775950668037
sg16
I800000
sg17
I8831913
sg18
I64
sg19
I20
sg20
I1787380
sg21
I492375
sg22
I550981
sg23
I8831913
sg24
F0.9086778736937756
ssS'FREVERT MARK A'
p281
(dp282
g3
I3275
sg4
F11.592502664826549
sg5
I6426990
sg7
I86987
sg8
I00
sg9
F71.3540281428528
sg10
I-3367011
sg11
I1617011
sg12
I2979
sg13
I21
sg14
I7427621
sg15
F92.01520912547528
sg16
I2000000
sg17
I14622185
sg18
I242
sg19
I6
sg20
I4188667
sg21
I1060932
sg22
I17252530
sg23
I10433518
sg24
F0.1828710758914965
ssS'PAI LOU L'
p283
(dp284
g3
g6
sg4
F32.01656665224854
sg5
g6
sg7
I32047
sg8
I00
sg9
F64.50672665508715
sg10
g6
sg11
g6
sg12
g6
sg13
g6
sg14
I1829457
sg15
I0
sg16
I1000000
sg17
I23817930
sg18
g6
sg19
g6
sg20
I8453763
sg21
I261879
sg22
I3123383
sg23
I15364167
sg24
I0
ssS'BAY FRANKLIN R'
p285
(dp286
g3
g6
sg4
F48.326921961686416
sg5
I260455
sg7
I129142
sg8
I00
sg9
I0
sg10
I-201641
sg11
g6
sg12
g6
sg13
g6
sg14
I69
sg15
I0
sg16
I400000
sg17
I63014
sg18
g6
sg19
g6
sg20
I145796
sg21
I239671
sg22
I827696
sg23
g6
sg24
I0
ssS'HAYSLETT RODERICK J'
p287
(dp288
g3
I2649
sg4
I0
sg5
g6
sg7
g6
sg8
I00
sg9
I0
sg10
g6
sg11
g6
sg12
I571
sg13
I1061
sg14
g6
sg15
F3.1934306569343067
sg16
g6
sg17
I346663
sg18
I35
sg19
I38
sg20
I346663
sg21
g6
sg22
g6
sg23
g6
sg24
F1.4142165984369186
ssS'FUGH JOHN L'
p289
(dp290
g3
g6
sg4
I0
sg5
I50591
sg7
g6
sg8
I00
sg9
F100.0
sg10
g6
sg11
g6
sg12
g6
sg13
g6
sg14
g6
sg15
I0
sg16
g6
sg17
I176378
sg18
g6
sg19
g6
sg20
g6
sg21
g6
sg22
I50591
sg23
I176378
sg24
I0
ssS'FALLON JAMES B'
p291
(dp292
g3
I1755
sg4
F68.00241544579664
sg5
g6
sg7
I95924
sg8
I00
sg9
F40.31287099677199
sg10
g6
sg11
I374347
sg12
I1604
sg13
I75
sg14
I401481
sg15
F35.8974358974359
sg16
I2500000
sg17
I2332399
sg18
I42
sg19
I37
sg20
I1392142
sg21
I304588
sg22
I3676340
sg23
I940257
sg24
F2.064732142857143
ssS'KOENIG MARK E'
p293
(dp294
g3
I2374
sg4
F44.096682606567505
sg5
g6
sg7
I127017
sg8
I01
sg9
F34.98529990026327
sg10
g6
sg11
I300000
sg12
I2271
sg13
I61
sg14
I150458
sg15
F46.49122807017544
sg16
I700000
sg17
I1920055
sg18
I53
sg19
I15
sg20
I1248318
sg21
I309946
sg22
I1587421
sg23
I671737
sg24
F0.6278777731268314
ssS'SAVAGE FRANK'
p295
(dp296
g3
g6
sg4
I0
sg5
g6
sg7
g6
sg8
I00
sg9
I0
sg10
I-121284
sg11
g6
sg12
g6
sg13
g6
sg14
g6
sg15
I0
sg16
g6
sg17
g6
sg18
g6
sg19
g6
sg20
g6
sg21
g6
sg22
I3750
sg23
g6
sg24
I0
ssS'IZZO LAWRENCE L'
p297
(dp298
g3
I496
sg4
I0
sg5
g6
sg7
I28093
sg8
I00
sg9
F37.20239588452194
sg10
g6
sg11
I312500
sg12
I437
sg13
I19
sg14
I1553729
sg15
F59.57446808510638
sg16
g6
sg17
I5819980
sg18
I28
sg19
I5
sg20
I3654808
sg21
I85274
sg22
I1979596
sg23
I2165172
sg24
F0.998003992015968
ssS'TILNEY ELIZABETH A'
p299
(dp300
g3
I460
sg4
F75.1139854729552
sg5
g6
sg7
g6
sg8
I00
sg9
F50.618898977947715
sg10
I-575000
sg11
I275000
sg12
I379
sg13
I19
sg14
I152055
sg15
F34.48275862068966
sg16
I300000
sg17
I1168042
sg18
I10
sg19
I11
sg20
I576792
sg21
I247338
sg22
I399393
sg23
I591250
sg24
F2.335456475583864
ssS'MARTIN AMANDA K'
p301
(dp302
g3
I1522
sg4
I0
sg5
I85430
sg7
I8211
sg8
I00
sg9
F100.0
sg10
g6
sg11
I5145434
sg12
I477
sg13
I230
sg14
I2818454
sg15
F3.361344537815126
sg16
g6
sg17
I2070306
sg18
I8
sg19
I0
sg20
g6
sg21
I349487
sg22
I8407016
sg23
I2070306
sg24
F0.0
ssS'BUY RICHARD B'
p303
(dp304
g3
I3523
sg4
F38.205171961479
sg5
I649584
sg7
g6
sg8
I00
sg9
F73.82305550636237
sg10
I-694862
sg11
I769862
sg12
I2333
sg13
I1053
sg14
I400572
sg15
F12.903225806451612
sg16
I900000
sg17
I3444470
sg18
I156
sg19
I71
sg20
I901657
sg21
I330546
sg22
I2355702
sg23
I2542813
sg24
F1.9755147468002225
ssS'GRAMM WENDY L'
p305
(dp306
g3
g6
sg4
I0
sg5
g6
sg7
g6
sg8
I00
sg9
I0
sg10
g6
sg11
g6
sg12
g6
sg13
g6
sg14
g6
sg15
I0
sg16
g6
sg17
g6
sg18
g6
sg19
g6
sg20
g6
sg21
g6
sg22
I119292
sg23
g6
sg24
I0
ssS'CAUSEY RICHARD A'
p307
(dp308
g3
I1892
sg4
F53.511476606387774
sg5
g6
sg7
I30674
sg8
I01
sg9
I0
sg10
I-235000
sg11
I350000
sg12
I1585
sg13
I49
sg14
I307895
sg15
F54.20560747663551
sg16
I1000000
sg17
I2502063
sg18
I58
sg19
I12
sg20
I2502063
sg21
I415189
sg22
I1868758
sg23
g6
sg24
F0.6302521008403361
ssS'TAYLOR MITCHELL S'
p309
(dp310
g3
I533
sg4
F54.911715689100845
sg5
I227449
sg7
g6
sg8
I00
sg9
F84.9455067064561
sg10
g6
sg11
g6
sg12
I300
sg13
I29
sg14
g6
sg15
F0.0
sg16
I600000
sg17
I3745048
sg18
I0
sg19
I0
sg20
I563798
sg21
I265214
sg22
I1092663
sg23
I3181250
sg24
F0.0
ssS'DONAHUE JR JEFFREY M'
p311
(dp312
g3
I865
sg4
F91.34922809902257
sg5
g6
sg7
I96268
sg8
I00
sg9
F70.85370050361335
sg10
I-300000
sg11
g6
sg12
I772
sg13
I22
sg14
I891
sg15
F89.52380952380953
sg16
I800000
sg17
I1080988
sg18
I188
sg19
I11
sg20
I315068
sg21
I278601
sg22
I875760
sg23
I765920
sg24
F1.2557077625570776
ssS'GLISAN JR BEN F'
p313
(dp314
g3
I873
sg4
F47.159282047090116
sg5
g6
sg7
I125978
sg8
I01
sg9
F49.416219465516484
sg10
g6
sg11
I71023
sg12
I874
sg13
I16
sg14
I200308
sg15
F76.47058823529412
sg16
I600000
sg17
I778546
sg18
I52
sg19
I6
sg20
I393818
sg21
I274975
sg22
I1272284
sg23
I384728
sg24
F0.6825938566552902
ss.