(lp0
S'poi'
p1
aS'bonus'
p2
aS'deferral_payments'
p3
aS'deferred_income'
p4
aS'exercised_stock_options'
p5
aS'expenses'
p6
aS'long_term_incentive'
p7
aS'other'
p8
aS'restricted_stock'
p9
aS'salary'
p10
aS'total_payments'
p11
aS'total_stock_value'
p12
aS'from_messages'
p13
aS'from_poi_to_this_person'
p14
aS'from_this_person_to_poi'
p15
aS'shared_receipt_with_poi'
p16
aS'to_messages'
p17
aS'perc_exercised_stock'
p18
aS'perc_bonus'
p19
aS'perc_message_from_poi'
p20
aS'perc_message_to_poi'
p21
a.